
01c_drv.ko:     file format elf32-littlearm

Disassembly of section .text:

00000000 <cleanup_module>:
   0:	e1a0c00d 	mov	ip, sp
   4:	e92dd830 	push	{r4, r5, fp, ip, lr, pc}
   8:	e24cb004 	sub	fp, ip, #4	; 0x4
   c:	e59f402c 	ldr	r4, [pc, #44]	; 40 <cleanup_module+0x40>
  10:	e59f102c 	ldr	r1, [pc, #44]	; 44 <cleanup_module+0x44>
  14:	e5940000 	ldr	r0, [r4]
  18:	ebfffffe 	bl	0 <unregister_chrdev>
  1c:	e5940004 	ldr	r0, [r4, #4]
  20:	ebfffffe 	bl	0 <class_device_unregister>
  24:	e5940008 	ldr	r0, [r4, #8]
  28:	ebfffffe 	bl	0 <class_destroy>
  2c:	e594000c 	ldr	r0, [r4, #12]
  30:	ebfffffe 	bl	0 <__iounmap>
  34:	e5940010 	ldr	r0, [r4, #16]
  38:	ebfffffe 	bl	0 <__iounmap>
  3c:	e89da830 	ldm	sp, {r4, r5, fp, sp, pc}
	...

00000048 <first_read>:
  48:	e1a0c00d 	mov	ip, sp
  4c:	e92dd800 	push	{fp, ip, lr, pc}
  50:	e24cb004 	sub	fp, ip, #4	; 0x4
  54:	e59f0008 	ldr	r0, [pc, #8]	; 64 <first_read+0x1c>
  58:	ebfffffe 	bl	0 <printk>
  5c:	e3a00000 	mov	r0, #0	; 0x0
  60:	e89da800 	ldm	sp, {fp, sp, pc}
  64:	0000000a 	.word	0x0000000a

00000068 <first_open>:
  68:	e1a0c00d 	mov	ip, sp
  6c:	e92dd8f0 	push	{r4, r5, r6, r7, fp, ip, lr, pc}
  70:	e24cb004 	sub	fp, ip, #4	; 0x4
  74:	e59f40a0 	ldr	r4, [pc, #160]	; 11c <first_open+0xb4>
  78:	e59f60a0 	ldr	r6, [pc, #160]	; 120 <first_open+0xb8>
  7c:	e59f70a0 	ldr	r7, [pc, #160]	; 124 <first_open+0xbc>
  80:	e59f50a0 	ldr	r5, [pc, #160]	; 128 <first_open+0xc0>
  84:	e59f00a0 	ldr	r0, [pc, #160]	; 12c <first_open+0xc4>
  88:	ebfffffe 	bl	0 <printk>
  8c:	e1a01006 	mov	r1, r6
  90:	e1a02007 	mov	r2, r7
  94:	e3a0302a 	mov	r3, #42	; 0x2a
  98:	e1a00004 	mov	r0, r4
  9c:	ebfffffe 	bl	0 <printk>
  a0:	e595c00c 	ldr	ip, [r5, #12]
  a4:	e1a00004 	mov	r0, r4
  a8:	e59c3000 	ldr	r3, [ip]			//出错 0000,00a8
  ac:	e1a01006 	mov	r1, r6
  b0:	e3c33b02 	bic	r3, r3, #2048	; 0x800
  b4:	e58c3000 	str	r3, [ip]
  b8:	e595400c 	ldr	r4, [r5, #12]
  bc:	e1a02007 	mov	r2, r7
  c0:	e594c000 	ldr	ip, [r4]
  c4:	e3a03035 	mov	r3, #53	; 0x35
  c8:	e38ccb01 	orr	ip, ip, #1024	; 0x400
  cc:	e584c000 	str	ip, [r4]
  d0:	e595400c 	ldr	r4, [r5, #12]
  d4:	e594c000 	ldr	ip, [r4]
  d8:	e3ccca02 	bic	ip, ip, #8192	; 0x2000
  dc:	e584c000 	str	ip, [r4]
  e0:	e595400c 	ldr	r4, [r5, #12]
  e4:	e594c000 	ldr	ip, [r4]
  e8:	e38cca01 	orr	ip, ip, #4096	; 0x1000
  ec:	e584c000 	str	ip, [r4]
  f0:	e595400c 	ldr	r4, [r5, #12]
  f4:	e594c000 	ldr	ip, [r4]
  f8:	e3ccc902 	bic	ip, ip, #32768	; 0x8000
  fc:	e584c000 	str	ip, [r4]
 100:	e595400c 	ldr	r4, [r5, #12]
 104:	e594c000 	ldr	ip, [r4]
 108:	e38cc901 	orr	ip, ip, #16384	; 0x4000
 10c:	e584c000 	str	ip, [r4]
 110:	ebfffffe 	bl	0 <printk>
 114:	e3a00000 	mov	r0, #0	; 0x0
 118:	e89da8f0 	ldm	sp, {r4, r5, r6, r7, fp, sp, pc}
 11c:	0000003a 	.word	0x0000003a
 120:	00000047 	.word	0x00000047
	...
 12c:	0000001f 	.word	0x0000001f

00000130 <first_init>:
 130:	e1a0c00d 	mov	ip, sp
 134:	e92dd8f0 	push	{r4, r5, r6, r7, fp, ip, lr, pc}
 138:	e24cb004 	sub	fp, ip, #4	; 0x4
 13c:	e24dd008 	sub	sp, sp, #8	; 0x8
 140:	e59f709c 	ldr	r7, [pc, #156]	; 1e4 <first_init+0xb4>
 144:	e59f509c 	ldr	r5, [pc, #156]	; 1e8 <first_init+0xb8>
 148:	e59f609c 	ldr	r6, [pc, #156]	; 1ec <first_init+0xbc>
 14c:	e3a0306d 	mov	r3, #109	; 0x6d
 150:	e1a01005 	mov	r1, r5
 154:	e1a02006 	mov	r2, r6
 158:	e1a00007 	mov	r0, r7
 15c:	ebfffffe 	bl	0 <printk>
 160:	e59f2088 	ldr	r2, [pc, #136]	; 1f0 <first_init+0xc0>
 164:	e59f1088 	ldr	r1, [pc, #136]	; 1f4 <first_init+0xc4>
 168:	e3a00000 	mov	r0, #0	; 0x0
 16c:	ebfffffe 	bl	0 <register_chrdev>
 170:	e59f4080 	ldr	r4, [pc, #128]	; 1f8 <first_init+0xc8>
 174:	e59f1080 	ldr	r1, [pc, #128]	; 1fc <first_init+0xcc>
 178:	e5840000 	str	r0, [r4]
 17c:	e59f007c 	ldr	r0, [pc, #124]	; 200 <first_init+0xd0>
 180:	ebfffffe 	bl	0 <class_create>
 184:	e5942000 	ldr	r2, [r4]
 188:	e59fc074 	ldr	ip, [pc, #116]	; 204 <first_init+0xd4>
 18c:	e3a01000 	mov	r1, #0	; 0x0
 190:	e1a03001 	mov	r3, r1
 194:	e1a02a02 	lsl	r2, r2, #20
 198:	e58dc000 	str	ip, [sp]
 19c:	e5840008 	str	r0, [r4, #8]
 1a0:	ebfffffe 	bl	0 <class_device_create>
 1a4:	e1a01005 	mov	r1, r5
 1a8:	e5840004 	str	r0, [r4, #4]
 1ac:	e1a02006 	mov	r2, r6
 1b0:	e1a00007 	mov	r0, r7
 1b4:	e3a03074 	mov	r3, #116	; 0x74
 1b8:	ebfffffe 	bl	0 <printk>
 1bc:	e59f3044 	ldr	r3, [pc, #68]	; 208 <first_init+0xd8>
 1c0:	e3a01004 	mov	r1, #4	; 0x4
 1c4:	e3a02000 	mov	r2, #0	; 0x0
 1c8:	e59f003c 	ldr	r0, [pc, #60]	; 20c <first_init+0xdc>
 1cc:	e584300c 	str	r3, [r4, #12]
 1d0:	ebfffffe 	bl	0 <__arm_ioremap>
 1d4:	e5840010 	str	r0, [r4, #16]
 1d8:	e3a00000 	mov	r0, #0	; 0x0
 1dc:	e24bd01c 	sub	sp, fp, #28	; 0x1c
 1e0:	e89da8f0 	ldm	sp, {r4, r5, r6, r7, fp, sp, pc}
 1e4:	0000003a 	.word	0x0000003a
 1e8:	00000047 	.word	0x00000047
 1ec:	0000000b 	.word	0x0000000b
	...
 1fc:	0000005a 	.word	0x0000005a
 200:	00000000 	.word	0x00000000
 204:	00000063 	.word	0x00000063
 208:	56000010 	.word	0x56000010
 20c:	56000014 	.word	0x56000014

00000210 <first_write>:
 210:	e1a0c00d 	mov	ip, sp
 214:	e92dd830 	push	{r4, r5, fp, ip, lr, pc}
 218:	e24cb004 	sub	fp, ip, #4	; 0x4
 21c:	e59f0114 	ldr	r0, [pc, #276]	; 338 <first_write+0x128>
 220:	e1a04001 	mov	r4, r1
 224:	ebfffffe 	bl	0 <printk>
 228:	e59f210c 	ldr	r2, [pc, #268]	; 33c <first_write+0x12c>
 22c:	e3a03046 	mov	r3, #70	; 0x46
 230:	e59f0108 	ldr	r0, [pc, #264]	; 340 <first_write+0x130>
 234:	e59f1108 	ldr	r1, [pc, #264]	; 344 <first_write+0x134>
 238:	ebfffffe 	bl	0 <printk>
 23c:	e1a0200d 	mov	r2, sp
 240:	e3c23d7f 	bic	r3, r2, #8128	; 0x1fc0
 244:	e3c3303f 	bic	r3, r3, #63	; 0x3f
 248:	e5933008 	ldr	r3, [r3, #8]
 24c:	e2942004 	adds	r2, r4, #4	; 0x4
 250:	30d22003 	sbcscc	r2, r2, r3
 254:	33a03000 	movcc	r3, #0	; 0x0
 258:	e3530000 	cmp	r3, #0	; 0x0
 25c:	1a000004 	bne	274 <first_write+0x64>
 260:	e1a01004 	mov	r1, r4
 264:	e3a02004 	mov	r2, #4	; 0x4
 268:	e59f00d8 	ldr	r0, [pc, #216]	; 348 <first_write+0x138>
 26c:	ebfffffe 	bl	0 <__copy_from_user>
 270:	ea000002 	b	280 <first_write+0x70>
 274:	e59f00cc 	ldr	r0, [pc, #204]	; 348 <first_write+0x138>
 278:	e3a01004 	mov	r1, #4	; 0x4
 27c:	ebfffffe 	bl	0 <__memzero>
 280:	e59f40c4 	ldr	r4, [pc, #196]	; 34c <first_write+0x13c>
 284:	e5941014 	ldr	r1, [r4, #20]
 288:	e3510001 	cmp	r1, #1	; 0x1
 28c:	1a000012 	bne	2dc <first_write+0xcc>
 290:	e59f00b8 	ldr	r0, [pc, #184]	; 350 <first_write+0x140>
 294:	ebfffffe 	bl	0 <printk>
 298:	e59f209c 	ldr	r2, [pc, #156]	; 33c <first_write+0x12c>
 29c:	e3a0304c 	mov	r3, #76	; 0x4c
 2a0:	e59f0098 	ldr	r0, [pc, #152]	; 340 <first_write+0x130>
 2a4:	e59f1098 	ldr	r1, [pc, #152]	; 344 <first_write+0x134>
 2a8:	ebfffffe 	bl	0 <printk>
 2ac:	e5942010 	ldr	r2, [r4, #16]
 2b0:	e5923000 	ldr	r3, [r2]
 2b4:	e3c33020 	bic	r3, r3, #32	; 0x20
 2b8:	e5823000 	str	r3, [r2]
 2bc:	e5942010 	ldr	r2, [r4, #16]
 2c0:	e5923000 	ldr	r3, [r2]
 2c4:	e3c33040 	bic	r3, r3, #64	; 0x40
 2c8:	e5823000 	str	r3, [r2]
 2cc:	e5942010 	ldr	r2, [r4, #16]
 2d0:	e5923000 	ldr	r3, [r2]
 2d4:	e3c33080 	bic	r3, r3, #128	; 0x80
 2d8:	ea000013 	b	32c <first_write+0x11c>
 2dc:	e3510000 	cmp	r1, #0	; 0x0
 2e0:	1a000012 	bne	330 <first_write+0x120>
 2e4:	e59f0068 	ldr	r0, [pc, #104]	; 354 <first_write+0x144>
 2e8:	ebfffffe 	bl	0 <printk>
 2ec:	e59f2048 	ldr	r2, [pc, #72]	; 33c <first_write+0x12c>
 2f0:	e3a03055 	mov	r3, #85	; 0x55
 2f4:	e59f0044 	ldr	r0, [pc, #68]	; 340 <first_write+0x130>
 2f8:	e59f1044 	ldr	r1, [pc, #68]	; 344 <first_write+0x134>
 2fc:	ebfffffe 	bl	0 <printk>
 300:	e5942010 	ldr	r2, [r4, #16]
 304:	e5923000 	ldr	r3, [r2]
 308:	e3833020 	orr	r3, r3, #32	; 0x20
 30c:	e5823000 	str	r3, [r2]
 310:	e5942010 	ldr	r2, [r4, #16]
 314:	e5923000 	ldr	r3, [r2]
 318:	e3833040 	orr	r3, r3, #64	; 0x40
 31c:	e5823000 	str	r3, [r2]
 320:	e5942010 	ldr	r2, [r4, #16]
 324:	e5923000 	ldr	r3, [r2]
 328:	e3833080 	orr	r3, r3, #128	; 0x80
 32c:	e5823000 	str	r3, [r2]
 330:	e3a00000 	mov	r0, #0	; 0x0
 334:	e89da830 	ldm	sp, {r4, r5, fp, sp, pc}
 338:	00000067 	.word	0x00000067
 33c:	00000016 	.word	0x00000016
 340:	0000003a 	.word	0x0000003a
 344:	00000047 	.word	0x00000047
 348:	00000014 	.word	0x00000014
 34c:	00000000 	.word	0x00000000
 350:	0000007d 	.word	0x0000007d
 354:	0000008c 	.word	0x0000008c
Disassembly of section .modinfo:

00000000 <__mod_license141>:
   0:	6563696c 	strbvs	r6, [r3, #-2412]!
   4:	3d65736e 	stclcc	3, cr7, [r5, #-440]!
   8:	004c5047 	subeq	r5, ip, r7, asr #32

0000000c <__module_depends>:
   c:	65706564 	.word	0x65706564
  10:	3d73646e 	.word	0x3d73646e
	...

00000015 <__mod_vermagic5>:
  15:	76          	.byte	0x76
  16:	7265      	.short	0x7265
  18:	6967616d 	.word	0x6967616d
  1c:	2e323d63 	.word	0x2e323d63
  20:	32322e36 	.word	0x32322e36
  24:	6d20362e 	.word	0x6d20362e
  28:	755f646f 	.word	0x755f646f
  2c:	616f6c6e 	.word	0x616f6c6e
  30:	52412064 	.word	0x52412064
  34:	2034764d 	.word	0x2034764d
	...